target datalayout = "e-m:e-p270:32:32-p271:32:32-p272:64:64-i64:64-i128:128-f80:128-n8:16:32:64-S128"
target triple = "x86_64-pc-linux-gnu"

%"class.cv::DenseOpticalFlow" = type { %"class.cv::Algorithm" }
%"class.cv::Algorithm" = type { ptr }
%"class.cv::optflow::OpticalFlowFarneback" = type <{ %"class.cv::DenseOpticalFlow", i32, [4 x i8], double, i8, [3 x i8], i32, i32, i32, double, i32, [4 x i8] }>

; Function Attrs: mustprogress uwtable
define hidden void @_ZN2cv7optflow20OpticalFlowFarneback4calcERKNS_11_InputArrayES4_RKNS_17_InputOutputArrayE(ptr noundef nonnull align 8 dereferenceable(52) %0, ptr noundef nonnull align 8 dereferenceable(24) %1, ptr noundef nonnull align 8 dereferenceable(24) %2, ptr noundef nonnull align 8 dereferenceable(24) %3) unnamed_addr #0 align 2 {
  %5 = alloca ptr, align 8
  %6 = alloca ptr, align 8
  %7 = alloca ptr, align 8
  %8 = alloca ptr, align 8
  store ptr %0, ptr %5, align 8, !tbaa !38
  store ptr %1, ptr %6, align 8, !tbaa !30
  store ptr %2, ptr %7, align 8, !tbaa !30
  store ptr %3, ptr %8, align 8, !tbaa !32
  %9 = load ptr, ptr %5, align 8
  %10 = load ptr, ptr %6, align 8, !tbaa !30
  %11 = load ptr, ptr %7, align 8, !tbaa !30
  %12 = load ptr, ptr %8, align 8, !tbaa !32
  %13 = getelementptr inbounds nuw %"class.cv::optflow::OpticalFlowFarneback", ptr %9, i32 0, i32 3
  %14 = load double, ptr %13, align 8, !tbaa !43
  %15 = getelementptr inbounds nuw %"class.cv::optflow::OpticalFlowFarneback", ptr %9, i32 0, i32 1
  %16 = load i32, ptr %15, align 8, !tbaa !40
  %17 = getelementptr inbounds nuw %"class.cv::optflow::OpticalFlowFarneback", ptr %9, i32 0, i32 6
  %18 = load i32, ptr %17, align 4, !tbaa !45
  %19 = getelementptr inbounds nuw %"class.cv::optflow::OpticalFlowFarneback", ptr %9, i32 0, i32 7
  %20 = load i32, ptr %19, align 8, !tbaa !46
  %21 = getelementptr inbounds nuw %"class.cv::optflow::OpticalFlowFarneback", ptr %9, i32 0, i32 8
  %22 = load i32, ptr %21, align 4, !tbaa !47
  %23 = getelementptr inbounds nuw %"class.cv::optflow::OpticalFlowFarneback", ptr %9, i32 0, i32 9
  %24 = load double, ptr %23, align 8, !tbaa !48
  %25 = getelementptr inbounds nuw %"class.cv::optflow::OpticalFlowFarneback", ptr %9, i32 0, i32 10
  %26 = load i32, ptr %25, align 8, !tbaa !49
  call void @_ZN2cv24calcOpticalFlowFarnebackERKNS_11_InputArrayES2_RKNS_17_InputOutputArrayEdiiiidi(ptr noundef nonnull align 8 dereferenceable(24) %10, ptr noundef nonnull align 8 dereferenceable(24) %11, ptr noundef nonnull align 8 dereferenceable(24) %12, double noundef %14, i32 noundef %16, i32 noundef %18, i32 noundef %20, i32 noundef %22, double noundef %24, i32 noundef %26)
  ret void
}