; Function Attrs: mustprogress uwtable
define hidden void @_ZN2cv7optflow20OpticalFlowFarneback4calcERKNS_11_InputArrayES4_RKNS_17_InputOutputArrayE(ptr noundef nonnull readonly align 8 captures(none) dereferenceable(52) %0, ptr noundef nonnull align 8 dereferenceable(24) %1, ptr noundef nonnull align 8 dereferenceable(24) %2, ptr noundef nonnull align 8 dereferenceable(24) %3) unnamed_addr #0 align 2 {
  %5 = getelementptr inbounds nuw i8, ptr %0, i64 16
  %6 = load double, ptr %5, align 8, !tbaa !43
  %7 = getelementptr inbounds nuw i8, ptr %0, i64 8
  %8 = load i32, ptr %7, align 8, !tbaa !40
  %9 = getelementptr inbounds nuw i8, ptr %0, i64 28
  %10 = load i32, ptr %9, align 4, !tbaa !45
  %11 = getelementptr inbounds nuw i8, ptr %0, i64 32
  %12 = load i32, ptr %11, align 8, !tbaa !46
  %13 = getelementptr inbounds nuw i8, ptr %0, i64 36
  %14 = load i32, ptr %13, align 4, !tbaa !47
  %15 = getelementptr inbounds nuw i8, ptr %0, i64 40
  %16 = load double, ptr %15, align 8, !tbaa !48
  %17 = getelementptr inbounds nuw i8, ptr %0, i64 48
  %18 = load i32, ptr %17, align 8, !tbaa !49
  tail call void @_ZN2cv24calcOpticalFlowFarnebackERKNS_11_InputArrayES2_RKNS_17_InputOutputArrayEdiiiidi(ptr noundef nonnull align 8 dereferenceable(24) %1, ptr noundef nonnull align 8 dereferenceable(24) %2, ptr noundef nonnull align 8 dereferenceable(24) %3, double noundef %6, i32 noundef %8, i32 noundef %10, i32 noundef %12, i32 noundef %14, double noundef %16, i32 noundef %18)
  ret void
}